Certificate:
    Data:
        Version: 3 (0x2)
        Serial Number: 89 (0x59)
        Signature Algorithm: sha1WithRSAEncryption
        Issuer: C=ch, ST=shanghai, L=minhang, O=sand, OU=rd, CN=ljm
        Validity
            Not Before: Aug 19 03:28:44 2011 GMT
            Not After : Aug 18 03:28:44 2012 GMT
        Subject: C=ch, ST=shanghai, O=sand, OU=rd, CN=ljm
        Subject Public Key Info:
            Public Key Algorithm: rsaEncryption
            RSA Public Key: (1024 bit)
                Modulus (1024 bit):
                    00:de:62:93:0c:ed:3f:63:c4:7a:cd:3f:c1:8b:76:
                    e7:ed:78:8d:02:eb:34:3c:dc:62:08:eb:dc:59:1c:
                    99:60:2a:91:cd:fa:eb:33:a5:96:0d:f9:46:89:f4:
                    79:39:d5:68:4a:ec:09:4c:d9:56:bd:ae:85:d3:66:
                    8e:5e:88:ea:d4:27:0d:27:b8:ec:d1:1b:ed:43:ee:
                    ef:39:25:8b:23:08:31:a6:98:2e:17:70:ab:72:ea:
                    2c:bf:91:c9:b9:83:0d:b2:ac:01:65:90:e1:20:a6:
                    23:51:09:4a:81:42:ee:71:03:3d:2e:25:b4:70:f8:
                    72:6d:55:4e:83:f3:4f:59:81
                Exponent: 65537 (0x10001)
        X509v3 extensions:
            X509v3 Basic Constraints: 
                CA:FALSE
            Netscape Comment: 
                OpenSSL Generated Certificate
            X509v3 Subject Key Identifier: 
                F7:FE:4B:88:A7:1F:BD:1D:27:36:03:E3:58:86:DB:2D:C6:63:B4:BB
            X509v3 Authority Key Identifier: 
                keyid:A7:A4:17:BF:A3:FE:9D:E2:7C:18:04:78:F0:C6:05:89:EE:39:1B:A5

    Signature Algorithm: sha1WithRSAEncryption
        7d:5b:b4:8a:ea:4a:6a:c5:aa:6c:db:90:33:79:04:ba:8d:c4:
        83:d8:ef:55:df:ef:d4:85:7d:e1:fb:cc:1f:20:26:63:db:e6:
        19:0d:da:e2:02:5a:66:f9:eb:83:2f:42:ea:d4:4a:12:8d:ea:
        e8:91:ff:db:ee:83:85:34:2d:f6:1e:b3:49:35:bc:39:d1:e6:
        b6:14:43:b0:46:0e:20:73:32:9e:de:a7:12:2f:09:f1:73:f8:
        e5:39:b1:bc:94:46:e7:3c:00:73:74:9a:f1:92:aa:1a:f8:ee:
        09:ad:86:8c:6a:ac:3c:ba:2a:02:a5:eb:16:ea:98:44:37:d8:
        b0:2f
-----BEGIN CERTIFICATE-----
MIIClzCCAgCgAwIBAgIBWTANBgkqhkiG9w0BAQUFADBcMQswCQYDVQQGEwJjaDER
MA8GA1UECBMIc2hhbmdoYWkxEDAOBgNVBAcTB21pbmhhbmcxDTALBgNVBAoTBHNh
bmQxCzAJBgNVBAsTAnJkMQwwCgYDVQQDEwNsam0wHhcNMTEwODE5MDMyODQ0WhcN
MTIwODE4MDMyODQ0WjBKMQswCQYDVQQGEwJjaDERMA8GA1UECBMIc2hhbmdoYWkx
DTALBgNVBAoTBHNhbmQxCzAJBgNVBAsTAnJkMQwwCgYDVQQDEwNsam0wgZ8wDQYJ
KoZIhvcNAQEBBQADgY0AMIGJAoGBAN5ikwztP2PEes0/wYt25+14jQLrNDzcYgjr
3FkcmWAqkc366zOllg35Ron0eTnVaErsCUzZVr2uhdNmjl6I6tQnDSe47NEb7UPu
7zkliyMIMaaYLhdwq3LqLL+RybmDDbKsAWWQ4SCmI1EJSoFC7nEDPS4ltHD4cm1V
ToPzT1mBAgMBAAGjezB5MAkGA1UdEwQCMAAwLAYJYIZIAYb4QgENBB8WHU9wZW5T
U0wgR2VuZXJhdGVkIENlcnRpZmljYXRlMB0GA1UdDgQWBBT3/kuIpx+9HSc2A+NY
htstxmO0uzAfBgNVHSMEGDAWgBSnpBe/o/6d4nwYBHjwxgWJ7jkbpTANBgkqhkiG
9w0BAQUFAAOBgQB9W7SK6kpqxaps25AzeQS6jcSD2O9V3+/UhX3h+8wfICZj2+YZ
DdriAlpm+euDL0Lq1EoSjerokf/b7oOFNC32HrNJNbw50ea2FEOwRg4gczKe3qcS
Lwnxc/jlObG8lEbnPABzdJrxkqoa+O4JrYaMaqw8uioCpesW6phEN9iwLw==
-----END CERTIFICATE-----
