Certificate:
    Data:
        Version: 3 (0x2)
        Serial Number: 86 (0x56)
        Signature Algorithm: sha1WithRSAEncryption
        Issuer: C=ch, ST=shanghai, L=minhang, O=sand, OU=rd, CN=ljm
        Validity
            Not Before: Aug 19 03:04:39 2011 GMT
            Not After : Aug 18 03:04:39 2012 GMT
        Subject: C=ch, ST=shanghai, O=sand, OU=rd, CN=ljm
        Subject Public Key Info:
            Public Key Algorithm: rsaEncryption
            RSA Public Key: (1024 bit)
                Modulus (1024 bit):
                    00:de:62:93:0c:ed:3f:63:c4:7a:cd:3f:c1:8b:76:
                    e7:ed:78:8d:02:eb:34:3c:dc:62:08:eb:dc:59:1c:
                    99:60:2a:91:cd:fa:eb:33:a5:96:0d:f9:46:89:f4:
                    79:39:d5:68:4a:ec:09:4c:d9:56:bd:ae:85:d3:66:
                    8e:5e:88:ea:d4:27:0d:27:b8:ec:d1:1b:ed:43:ee:
                    ef:39:25:8b:23:08:31:a6:98:2e:17:70:ab:72:ea:
                    2c:bf:91:c9:b9:83:0d:b2:ac:01:65:90:e1:20:a6:
                    23:51:09:4a:81:42:ee:71:03:3d:2e:25:b4:70:f8:
                    72:6d:55:4e:83:f3:4f:59:81
                Exponent: 65537 (0x10001)
        X509v3 extensions:
            X509v3 Basic Constraints: 
                CA:FALSE
            Netscape Comment: 
                OpenSSL Generated Certificate
            X509v3 Subject Key Identifier: 
                F7:FE:4B:88:A7:1F:BD:1D:27:36:03:E3:58:86:DB:2D:C6:63:B4:BB
            X509v3 Authority Key Identifier: 
                keyid:A7:A4:17:BF:A3:FE:9D:E2:7C:18:04:78:F0:C6:05:89:EE:39:1B:A5

    Signature Algorithm: sha1WithRSAEncryption
        3b:0b:aa:94:e4:ca:de:c1:e9:0c:77:e1:06:83:eb:2a:39:98:
        ad:67:37:b8:cf:24:ee:37:68:22:ba:cb:53:3e:05:70:fb:40:
        fd:bb:ec:e2:ba:d9:0b:66:50:2f:9e:73:c5:aa:d9:dd:28:cb:
        76:98:b7:ff:4a:f7:0f:4a:f0:98:69:f5:2c:6f:39:52:fd:6e:
        f6:77:83:83:12:72:9f:d3:99:73:89:f4:16:b6:7f:cc:4c:b5:
        63:d4:05:8e:56:8d:a9:0e:ea:bd:8c:83:1e:1d:4a:6f:d4:eb:
        50:09:f4:9d:ef:ec:80:b1:2e:59:9f:9b:a5:32:fa:f5:e1:c4:
        52:18
-----BEGIN CERTIFICATE-----
MIIClzCCAgCgAwIBAgIBVjANBgkqhkiG9w0BAQUFADBcMQswCQYDVQQGEwJjaDER
MA8GA1UECBMIc2hhbmdoYWkxEDAOBgNVBAcTB21pbmhhbmcxDTALBgNVBAoTBHNh
bmQxCzAJBgNVBAsTAnJkMQwwCgYDVQQDEwNsam0wHhcNMTEwODE5MDMwNDM5WhcN
MTIwODE4MDMwNDM5WjBKMQswCQYDVQQGEwJjaDERMA8GA1UECBMIc2hhbmdoYWkx
DTALBgNVBAoTBHNhbmQxCzAJBgNVBAsTAnJkMQwwCgYDVQQDEwNsam0wgZ8wDQYJ
KoZIhvcNAQEBBQADgY0AMIGJAoGBAN5ikwztP2PEes0/wYt25+14jQLrNDzcYgjr
3FkcmWAqkc366zOllg35Ron0eTnVaErsCUzZVr2uhdNmjl6I6tQnDSe47NEb7UPu
7zkliyMIMaaYLhdwq3LqLL+RybmDDbKsAWWQ4SCmI1EJSoFC7nEDPS4ltHD4cm1V
ToPzT1mBAgMBAAGjezB5MAkGA1UdEwQCMAAwLAYJYIZIAYb4QgENBB8WHU9wZW5T
U0wgR2VuZXJhdGVkIENlcnRpZmljYXRlMB0GA1UdDgQWBBT3/kuIpx+9HSc2A+NY
htstxmO0uzAfBgNVHSMEGDAWgBSnpBe/o/6d4nwYBHjwxgWJ7jkbpTANBgkqhkiG
9w0BAQUFAAOBgQA7C6qU5MrewekMd+EGg+sqOZitZze4zyTuN2giustTPgVw+0D9
u+ziutkLZlAvnnPFqtndKMt2mLf/SvcPSvCYafUsbzlS/W72d4ODEnKf05lzifQW
tn/MTLVj1AWOVo2pDuq9jIMeHUpv1OtQCfSd7+yAsS5Zn5ulMvr14cRSGA==
-----END CERTIFICATE-----
