Certificate:
    Data:
        Version: 3 (0x2)
        Serial Number: 87 (0x57)
        Signature Algorithm: sha1WithRSAEncryption
        Issuer: C=ch, ST=shanghai, L=minhang, O=sand, OU=rd, CN=ljm
        Validity
            Not Before: Aug 19 03:10:59 2011 GMT
            Not After : Aug 18 03:10:59 2012 GMT
        Subject: C=ch, ST=shanghai, O=sand, OU=rd, CN=ljm
        Subject Public Key Info:
            Public Key Algorithm: rsaEncryption
            RSA Public Key: (1024 bit)
                Modulus (1024 bit):
                    00:de:62:93:0c:ed:3f:63:c4:7a:cd:3f:c1:8b:76:
                    e7:ed:78:8d:02:eb:34:3c:dc:62:08:eb:dc:59:1c:
                    99:60:2a:91:cd:fa:eb:33:a5:96:0d:f9:46:89:f4:
                    79:39:d5:68:4a:ec:09:4c:d9:56:bd:ae:85:d3:66:
                    8e:5e:88:ea:d4:27:0d:27:b8:ec:d1:1b:ed:43:ee:
                    ef:39:25:8b:23:08:31:a6:98:2e:17:70:ab:72:ea:
                    2c:bf:91:c9:b9:83:0d:b2:ac:01:65:90:e1:20:a6:
                    23:51:09:4a:81:42:ee:71:03:3d:2e:25:b4:70:f8:
                    72:6d:55:4e:83:f3:4f:59:81
                Exponent: 65537 (0x10001)
        X509v3 extensions:
            X509v3 Basic Constraints: 
                CA:FALSE
            Netscape Comment: 
                OpenSSL Generated Certificate
            X509v3 Subject Key Identifier: 
                F7:FE:4B:88:A7:1F:BD:1D:27:36:03:E3:58:86:DB:2D:C6:63:B4:BB
            X509v3 Authority Key Identifier: 
                keyid:A7:A4:17:BF:A3:FE:9D:E2:7C:18:04:78:F0:C6:05:89:EE:39:1B:A5

    Signature Algorithm: sha1WithRSAEncryption
        11:12:62:b1:79:99:ef:9c:35:cb:94:2c:32:bc:fa:ea:09:c8:
        b7:f4:a4:8e:7e:fa:9e:66:54:4e:9e:18:b4:37:d0:bf:8e:c0:
        c2:3c:eb:d4:82:fd:c5:d8:88:2f:9e:d5:08:82:84:96:82:b9:
        3e:d5:4a:d6:4a:32:50:fe:21:84:e9:d9:59:43:3e:19:32:0b:
        ad:ea:da:7f:b3:40:46:3a:38:79:59:31:e2:fc:7b:f1:e4:67:
        81:7e:b0:ac:2a:0b:02:2d:7d:84:7c:1b:79:14:18:6a:fb:b9:
        75:75:3e:fa:2c:eb:42:cc:71:ae:3a:79:62:db:4f:6c:d1:88:
        7f:bf
-----BEGIN CERTIFICATE-----
MIIClzCCAgCgAwIBAgIBVzANBgkqhkiG9w0BAQUFADBcMQswCQYDVQQGEwJjaDER
MA8GA1UECBMIc2hhbmdoYWkxEDAOBgNVBAcTB21pbmhhbmcxDTALBgNVBAoTBHNh
bmQxCzAJBgNVBAsTAnJkMQwwCgYDVQQDEwNsam0wHhcNMTEwODE5MDMxMDU5WhcN
MTIwODE4MDMxMDU5WjBKMQswCQYDVQQGEwJjaDERMA8GA1UECBMIc2hhbmdoYWkx
DTALBgNVBAoTBHNhbmQxCzAJBgNVBAsTAnJkMQwwCgYDVQQDEwNsam0wgZ8wDQYJ
KoZIhvcNAQEBBQADgY0AMIGJAoGBAN5ikwztP2PEes0/wYt25+14jQLrNDzcYgjr
3FkcmWAqkc366zOllg35Ron0eTnVaErsCUzZVr2uhdNmjl6I6tQnDSe47NEb7UPu
7zkliyMIMaaYLhdwq3LqLL+RybmDDbKsAWWQ4SCmI1EJSoFC7nEDPS4ltHD4cm1V
ToPzT1mBAgMBAAGjezB5MAkGA1UdEwQCMAAwLAYJYIZIAYb4QgENBB8WHU9wZW5T
U0wgR2VuZXJhdGVkIENlcnRpZmljYXRlMB0GA1UdDgQWBBT3/kuIpx+9HSc2A+NY
htstxmO0uzAfBgNVHSMEGDAWgBSnpBe/o/6d4nwYBHjwxgWJ7jkbpTANBgkqhkiG
9w0BAQUFAAOBgQAREmKxeZnvnDXLlCwyvPrqCci39KSOfvqeZlROnhi0N9C/jsDC
POvUgv3F2IgvntUIgoSWgrk+1UrWSjJQ/iGE6dlZQz4ZMgut6tp/s0BGOjh5WTHi
/Hvx5GeBfrCsKgsCLX2EfBt5FBhq+7l1dT76LOtCzHGuOnli209s0Yh/vw==
-----END CERTIFICATE-----
