Certificate:
    Data:
        Version: 3 (0x2)
        Serial Number: 88 (0x58)
        Signature Algorithm: sha1WithRSAEncryption
        Issuer: C=ch, ST=shanghai, O=sand, OU=rd, CN=ljm
        Validity
            Not Before: Aug 19 03:21:46 2011 GMT
            Not After : Aug 18 03:21:46 2012 GMT
        Subject: C=ch, ST=shanghai, O=sand, OU=rd, CN=ljm
        Subject Public Key Info:
            Public Key Algorithm: rsaEncryption
            RSA Public Key: (1024 bit)
                Modulus (1024 bit):
                    00:a9:69:e6:83:27:a5:48:a4:85:c4:81:9f:c0:8a:
                    bb:36:fa:89:58:36:b7:2a:d3:a2:8a:07:0a:c9:34:
                    65:31:7d:86:7d:05:36:13:3e:6a:46:12:48:cc:3e:
                    1b:c5:63:1a:b3:fc:69:e2:21:a9:0f:d1:cd:27:7f:
                    9c:54:c1:10:e8:86:6d:81:33:07:11:e9:eb:05:c1:
                    a6:b6:12:52:95:92:a2:50:bb:5b:5c:b2:32:2a:c8:
                    a3:8a:e8:1e:41:ab:94:e7:38:84:7d:e2:06:9f:ee:
                    0c:4f:54:5a:30:9a:f8:d4:c6:c2:a3:ff:a3:fa:a2:
                    08:50:84:87:96:52:ac:22:61
                Exponent: 65537 (0x10001)
        X509v3 extensions:
            X509v3 Basic Constraints: 
                CA:FALSE
            Netscape Comment: 
                OpenSSL Generated Certificate
            X509v3 Subject Key Identifier: 
                95:E7:1A:D4:42:7F:18:5F:E1:BA:2F:B7:AD:4B:B7:A8:F1:DC:2A:2D
            X509v3 Authority Key Identifier: 
                keyid:F7:FE:4B:88:A7:1F:BD:1D:27:36:03:E3:58:86:DB:2D:C6:63:B4:BB

    Signature Algorithm: sha1WithRSAEncryption
        11:ca:75:a5:bc:7e:d7:c5:f4:df:27:dd:ae:6e:3b:d0:d4:31:
        a1:27:da:56:9a:84:01:f9:d9:22:b1:a5:e4:3c:96:5b:85:0e:
        86:47:78:33:c6:a8:f1:54:08:5e:0b:06:3d:d1:05:f2:24:4c:
        c4:ed:30:37:e4:8e:c1:0c:bd:02:e9:8a:d7:c2:bc:1a:4a:9a:
        b6:da:b3:25:6a:84:8b:ba:08:a7:91:f8:f7:a5:61:a6:4f:e4:
        19:3f:6f:f2:2b:e4:d5:e6:30:de:84:09:87:d1:a6:32:e9:d0:
        36:85:ae:03:69:21:96:26:b9:57:dd:70:16:f0:81:8d:3d:47:
        6b:f8
-----BEGIN CERTIFICATE-----
MIIChTCCAe6gAwIBAgIBWDANBgkqhkiG9w0BAQUFADBKMQswCQYDVQQGEwJjaDER
MA8GA1UECBMIc2hhbmdoYWkxDTALBgNVBAoTBHNhbmQxCzAJBgNVBAsTAnJkMQww
CgYDVQQDEwNsam0wHhcNMTEwODE5MDMyMTQ2WhcNMTIwODE4MDMyMTQ2WjBKMQsw
CQYDVQQGEwJjaDERMA8GA1UECBMIc2hhbmdoYWkxDTALBgNVBAoTBHNhbmQxCzAJ
BgNVBAsTAnJkMQwwCgYDVQQDEwNsam0wgZ8wDQYJKoZIhvcNAQEBBQADgY0AMIGJ
AoGBAKlp5oMnpUikhcSBn8CKuzb6iVg2tyrToooHCsk0ZTF9hn0FNhM+akYSSMw+
G8VjGrP8aeIhqQ/RzSd/nFTBEOiGbYEzBxHp6wXBprYSUpWSolC7W1yyMirIo4ro
HkGrlOc4hH3iBp/uDE9UWjCa+NTGwqP/o/qiCFCEh5ZSrCJhAgMBAAGjezB5MAkG
A1UdEwQCMAAwLAYJYIZIAYb4QgENBB8WHU9wZW5TU0wgR2VuZXJhdGVkIENlcnRp
ZmljYXRlMB0GA1UdDgQWBBSV5xrUQn8YX+G6L7etS7eo8dwqLTAfBgNVHSMEGDAW
gBT3/kuIpx+9HSc2A+NYhtstxmO0uzANBgkqhkiG9w0BAQUFAAOBgQARynWlvH7X
xfTfJ92ubjvQ1DGhJ9pWmoQB+dkisaXkPJZbhQ6GR3gzxqjxVAheCwY90QXyJEzE
7TA35I7BDL0C6YrXwrwaSpq22rMlaoSLuginkfj3pWGmT+QZP2/yK+TV5jDehAmH
0aYy6dA2ha4DaSGWJrlX3XAW8IGNPUdr+A==
-----END CERTIFICATE-----
