Certificate:
    Data:
        Version: 3 (0x2)
        Serial Number: 90 (0x5a)
        Signature Algorithm: sha1WithRSAEncryption
        Issuer: C=ch, ST=shanghai, O=sand, OU=rd, CN=ljm
        Validity
            Not Before: Aug 19 03:29:47 2011 GMT
            Not After : Aug 18 03:29:47 2012 GMT
        Subject: C=ch, ST=shanghai, O=sand, OU=rd, CN=ljm
        Subject Public Key Info:
            Public Key Algorithm: rsaEncryption
            RSA Public Key: (1024 bit)
                Modulus (1024 bit):
                    00:a9:69:e6:83:27:a5:48:a4:85:c4:81:9f:c0:8a:
                    bb:36:fa:89:58:36:b7:2a:d3:a2:8a:07:0a:c9:34:
                    65:31:7d:86:7d:05:36:13:3e:6a:46:12:48:cc:3e:
                    1b:c5:63:1a:b3:fc:69:e2:21:a9:0f:d1:cd:27:7f:
                    9c:54:c1:10:e8:86:6d:81:33:07:11:e9:eb:05:c1:
                    a6:b6:12:52:95:92:a2:50:bb:5b:5c:b2:32:2a:c8:
                    a3:8a:e8:1e:41:ab:94:e7:38:84:7d:e2:06:9f:ee:
                    0c:4f:54:5a:30:9a:f8:d4:c6:c2:a3:ff:a3:fa:a2:
                    08:50:84:87:96:52:ac:22:61
                Exponent: 65537 (0x10001)
        X509v3 extensions:
            X509v3 Basic Constraints: 
                CA:FALSE
            Netscape Comment: 
                OpenSSL Generated Certificate
            X509v3 Subject Key Identifier: 
                95:E7:1A:D4:42:7F:18:5F:E1:BA:2F:B7:AD:4B:B7:A8:F1:DC:2A:2D
            X509v3 Authority Key Identifier: 
                keyid:F7:FE:4B:88:A7:1F:BD:1D:27:36:03:E3:58:86:DB:2D:C6:63:B4:BB

    Signature Algorithm: sha1WithRSAEncryption
        73:2c:c0:0c:5a:b7:39:88:c4:47:9f:13:20:6e:b1:10:2c:ad:
        2c:a5:2d:a7:8c:33:f6:4a:7e:26:b8:75:fd:c9:84:00:fb:c7:
        bc:9e:90:41:7c:dc:7f:11:92:5d:5d:94:65:a0:0f:6e:8b:77:
        40:82:e6:9f:3f:98:57:ee:15:d0:d1:16:dc:20:8d:8b:6c:c6:
        60:65:e2:e6:3c:bb:48:0d:4a:12:04:a4:44:93:e9:d2:89:86:
        99:db:dc:28:00:24:e7:4d:53:f4:84:c8:81:c9:18:44:54:11:
        53:86:95:3c:03:27:51:2a:bb:e6:79:89:7b:43:08:1a:e9:5f:
        04:58
-----BEGIN CERTIFICATE-----
MIIChTCCAe6gAwIBAgIBWjANBgkqhkiG9w0BAQUFADBKMQswCQYDVQQGEwJjaDER
MA8GA1UECBMIc2hhbmdoYWkxDTALBgNVBAoTBHNhbmQxCzAJBgNVBAsTAnJkMQww
CgYDVQQDEwNsam0wHhcNMTEwODE5MDMyOTQ3WhcNMTIwODE4MDMyOTQ3WjBKMQsw
CQYDVQQGEwJjaDERMA8GA1UECBMIc2hhbmdoYWkxDTALBgNVBAoTBHNhbmQxCzAJ
BgNVBAsTAnJkMQwwCgYDVQQDEwNsam0wgZ8wDQYJKoZIhvcNAQEBBQADgY0AMIGJ
AoGBAKlp5oMnpUikhcSBn8CKuzb6iVg2tyrToooHCsk0ZTF9hn0FNhM+akYSSMw+
G8VjGrP8aeIhqQ/RzSd/nFTBEOiGbYEzBxHp6wXBprYSUpWSolC7W1yyMirIo4ro
HkGrlOc4hH3iBp/uDE9UWjCa+NTGwqP/o/qiCFCEh5ZSrCJhAgMBAAGjezB5MAkG
A1UdEwQCMAAwLAYJYIZIAYb4QgENBB8WHU9wZW5TU0wgR2VuZXJhdGVkIENlcnRp
ZmljYXRlMB0GA1UdDgQWBBSV5xrUQn8YX+G6L7etS7eo8dwqLTAfBgNVHSMEGDAW
gBT3/kuIpx+9HSc2A+NYhtstxmO0uzANBgkqhkiG9w0BAQUFAAOBgQBzLMAMWrc5
iMRHnxMgbrEQLK0spS2njDP2Sn4muHX9yYQA+8e8npBBfNx/EZJdXZRloA9ui3dA
guafP5hX7hXQ0RbcII2LbMZgZeLmPLtIDUoSBKREk+nSiYaZ29woACTnTVP0hMiB
yRhEVBFThpU8AydRKrvmeYl7Qwga6V8EWA==
-----END CERTIFICATE-----
